target datalayout = "e-m:e-p270:32:32-p271:32:32-p272:64:64-i64:64-i128:128-f80:128-n8:16:32:64-S128"
target triple = "x86_64-pc-linux-gnu"

%struct.wtap = type { ptr, ptr, i8, i32, i32, ptr, ptr, ptr, i32, ptr, ptr, ptr, ptr, ptr, ptr, ptr, ptr, ptr, ptr, i32, i32, ptr, ptr, ptr, ptr }
%struct.capsa_t = type { i16, i32, i32, i64, [200 x i32] }

@capsa_magic = internal constant [4 x i8] c"cpse", align 1
@capsa_file_type_subtype = internal global i32 -1, align 4
@packet_builder_file_type_subtype = internal global i32 -1, align 4
@.str = private unnamed_addr constant [39 x i8] c"capsa: format indicator %u unsupported\00", align 1

; Function Attrs: null_pointer_is_valid sspstrong uwtable
define hidden i32 @capsa_open(ptr noundef %0, ptr noundef %1, ptr noundef %2) #0 {
  %4 = alloca i32, align 4
  %5 = alloca ptr, align 8
  %6 = alloca ptr, align 8
  %7 = alloca ptr, align 8
  %8 = alloca [4 x i8], align 1
  %9 = alloca i16, align 2
  %10 = alloca i32, align 4
  %11 = alloca i32, align 4
  %12 = alloca ptr, align 8
  %13 = alloca i32, align 4
  %14 = alloca i64, align 8
  %15 = alloca i64, align 8
  %16 = alloca ptr, align 8
  %17 = alloca ptr, align 8
  store ptr %0, ptr %5, align 8
  store ptr %1, ptr %6, align 8
  store ptr %2, ptr %7, align 8
  call void @llvm.lifetime.start.p0(i64 4, ptr %8) #8
  call void @llvm.lifetime.start.p0(i64 2, ptr %9) #8
  call void @llvm.lifetime.start.p0(i64 4, ptr %10) #8
  call void @llvm.lifetime.start.p0(i64 4, ptr %11) #8
  call void @llvm.lifetime.start.p0(i64 8, ptr %12) #8
  %18 = load ptr, ptr %5, align 8
  %19 = getelementptr inbounds nuw %struct.wtap, ptr %18, i32 0, i32 0
  %20 = load ptr, ptr %19, align 8
  %21 = getelementptr inbounds [4 x i8], ptr %8, i64 0, i64 0
  %22 = load ptr, ptr %6, align 8
  %23 = load ptr, ptr %7, align 8
  %24 = call zeroext i1 @wtap_read_bytes(ptr noundef %20, ptr noundef %21, i32 noundef 4, ptr noundef %22, ptr noundef %23)
  br i1 %24, label %31, label %25

25:                                               ; preds = %3
  %26 = load ptr, ptr %6, align 8
  %27 = load i32, ptr %26, align 4
  %28 = icmp ne i32 %27, -12
  br i1 %28, label %29, label %30

29:                                               ; preds = %25
  store i32 -1, ptr %4, align 4
  store i32 1, ptr %13, align 4
  br label %162

30:                                               ; preds = %25
  store i32 0, ptr %4, align 4
  store i32 1, ptr %13, align 4
  br label %162

31:                                               ; preds = %3
  %32 = getelementptr inbounds [4 x i8], ptr %8, i64 0, i64 0
  %33 = call i32 @memcmp(ptr noundef %32, ptr noundef @capsa_magic, i64 noundef 4) #9
  %34 = icmp ne i32 %33, 0
  br i1 %34, label %35, label %36

35:                                               ; preds = %31
  store i32 0, ptr %4, align 4
  store i32 1, ptr %13, align 4
  br label %162

36:                                               ; preds = %31
  %37 = load ptr, ptr %5, align 8
  %38 = getelementptr inbounds nuw %struct.wtap, ptr %37, i32 0, i32 0
  %39 = load ptr, ptr %38, align 8
  %40 = load ptr, ptr %6, align 8
  %41 = load ptr, ptr %7, align 8
  %42 = call zeroext i1 @wtap_read_bytes(ptr noundef %39, ptr noundef %9, i32 noundef 2, ptr noundef %40, ptr noundef %41)
  br i1 %42, label %44, label %43

43:                                               ; preds = %36
  store i32 -1, ptr %4, align 4
  store i32 1, ptr %13, align 4
  br label %162

44:                                               ; preds = %36
  %45 = load i16, ptr %9, align 2
  store i16 %45, ptr %9, align 2
  %46 = load i16, ptr %9, align 2
  %47 = zext i16 %46 to i32
  switch i32 %47, label %52 [
    i32 1, label %48
    i32 2, label %50
  ]

48:                                               ; preds = %44
  %49 = load i32, ptr @capsa_file_type_subtype, align 4
  store i32 %49, ptr %10, align 4
  br label %58

50:                                               ; preds = %44
  %51 = load i32, ptr @packet_builder_file_type_subtype, align 4
  store i32 %51, ptr %10, align 4
  br label %58

52:                                               ; preds = %44
  %53 = load ptr, ptr %6, align 8
  store i32 -4, ptr %53, align 4
  %54 = load i16, ptr %9, align 2
  %55 = zext i16 %54 to i32
  %56 = call noalias ptr (ptr, ptr, ...) @wmem_strdup_printf(ptr noundef null, ptr noundef @.str, i32 noundef %55)
  %57 = load ptr, ptr %7, align 8
  store ptr %56, ptr %57, align 8
  store i32 -1, ptr %4, align 4
  store i32 1, ptr %13, align 4
  br label %162

58:                                               ; preds = %50, %48
  %59 = load ptr, ptr %5, align 8
  %60 = getelementptr inbounds nuw %struct.wtap, ptr %59, i32 0, i32 0
  %61 = load ptr, ptr %60, align 8
  %62 = load ptr, ptr %6, align 8
  %63 = load ptr, ptr %7, align 8
  %64 = call zeroext i1 @wtap_read_bytes(ptr noundef %61, ptr noundef null, i32 noundef 2, ptr noundef %62, ptr noundef %63)
  br i1 %64, label %66, label %65

65:                                               ; preds = %58
  store i32 -1, ptr %4, align 4
  store i32 1, ptr %13, align 4
  br label %162

66:                                               ; preds = %58
  %67 = load ptr, ptr %5, align 8
  %68 = getelementptr inbounds nuw %struct.wtap, ptr %67, i32 0, i32 0
  %69 = load ptr, ptr %68, align 8
  %70 = load ptr, ptr %6, align 8
  %71 = load ptr, ptr %7, align 8
  %72 = call zeroext i1 @wtap_read_bytes(ptr noundef %69, ptr noundef null, i32 noundef 4, ptr noundef %70, ptr noundef %71)
  br i1 %72, label %74, label %73

73:                                               ; preds = %66
  store i32 -1, ptr %4, align 4
  store i32 1, ptr %13, align 4
  br label %162

74:                                               ; preds = %66
  %75 = load ptr, ptr %5, align 8
  %76 = getelementptr inbounds nuw %struct.wtap, ptr %75, i32 0, i32 0
  %77 = load ptr, ptr %76, align 8
  %78 = load ptr, ptr %6, align 8
  %79 = load ptr, ptr %7, align 8
  %80 = call zeroext i1 @wtap_read_bytes(ptr noundef %77, ptr noundef null, i32 noundef 4, ptr noundef %78, ptr noundef %79)
  br i1 %80, label %82, label %81

81:                                               ; preds = %74
  store i32 -1, ptr %4, align 4
  store i32 1, ptr %13, align 4
  br label %162

82:                                               ; preds = %74
  %83 = load ptr, ptr %5, align 8
  %84 = getelementptr inbounds nuw %struct.wtap, ptr %83, i32 0, i32 0
  %85 = load ptr, ptr %84, align 8
  %86 = load ptr, ptr %6, align 8
  %87 = load ptr, ptr %7, align 8
  %88 = call zeroext i1 @wtap_read_bytes(ptr noundef %85, ptr noundef null, i32 noundef 4, ptr noundef %86, ptr noundef %87)
  br i1 %88, label %90, label %89

89:                                               ; preds = %82
  store i32 -1, ptr %4, align 4
  store i32 1, ptr %13, align 4
  br label %162

90:                                               ; preds = %82
  %91 = load ptr, ptr %5, align 8
  %92 = getelementptr inbounds nuw %struct.wtap, ptr %91, i32 0, i32 0
  %93 = load ptr, ptr %92, align 8
  %94 = load ptr, ptr %6, align 8
  %95 = load ptr, ptr %7, align 8
  %96 = call zeroext i1 @wtap_read_bytes(ptr noundef %93, ptr noundef %11, i32 noundef 4, ptr noundef %94, ptr noundef %95)
  br i1 %96, label %98, label %97

97:                                               ; preds = %90
  store i32 -1, ptr %4, align 4
  store i32 1, ptr %13, align 4
  br label %162

98:                                               ; preds = %90
  %99 = load i32, ptr %11, align 4
  store i32 %99, ptr %11, align 4
  %100 = load ptr, ptr %5, align 8
  %101 = getelementptr inbounds nuw %struct.wtap, ptr %100, i32 0, i32 0
  %102 = load ptr, ptr %101, align 8
  %103 = load ptr, ptr %6, align 8
  %104 = call i64 @file_seek(ptr noundef %102, i64 noundef 17647, i32 noundef 0, ptr noundef %103)
  %105 = icmp ne i64 %104, 0
  br i1 %105, label %107, label %106

106:                                              ; preds = %98
  store i32 -1, ptr %4, align 4
  store i32 1, ptr %13, align 4
  br label %162

107:                                              ; preds = %98
  %108 = load i32, ptr %10, align 4
  %109 = load ptr, ptr %5, align 8
  %110 = getelementptr inbounds nuw %struct.wtap, ptr %109, i32 0, i32 3
  store i32 %108, ptr %110, align 4
  call void @llvm.lifetime.start.p0(i64 8, ptr %14) #8
  store i64 1, ptr %14, align 8
  call void @llvm.lifetime.start.p0(i64 8, ptr %15) #8
  store i64 824, ptr %15, align 8
  call void @llvm.lifetime.start.p0(i64 8, ptr %16) #8
  %111 = load i64, ptr %15, align 8
  %112 = icmp eq i64 %111, 1
  br i1 %112, label %113, label %116

113:                                              ; preds = %107
  %114 = load i64, ptr %14, align 8
  %115 = call noalias ptr @g_malloc(i64 noundef %114) #10
  store ptr %115, ptr %16, align 8
  br label %137

116:                                              ; preds = %107
  %117 = load i64, ptr %14, align 8
  %118 = call i1 @llvm.is.constant.i64(i64 %117)
  br i1 %118, label %119, label %132

119:                                              ; preds = %116
  %120 = load i64, ptr %15, align 8
  %121 = icmp eq i64 %120, 0
  br i1 %121, label %127, label %122

122:                                              ; preds = %119
  %123 = load i64, ptr %14, align 8
  %124 = load i64, ptr %15, align 8
  %125 = udiv i64 -1, %124
  %126 = icmp ule i64 %123, %125
  br i1 %126, label %127, label %132

127:                                              ; preds = %122, %119
  %128 = load i64, ptr %14, align 8
  %129 = load i64, ptr %15, align 8
  %130 = mul i64 %128, %129
  %131 = call noalias ptr @g_malloc(i64 noundef %130) #10
  store ptr %131, ptr %16, align 8
  br label %136

132:                                              ; preds = %122, %116
  %133 = load i64, ptr %14, align 8
  %134 = load i64, ptr %15, align 8
  %135 = call noalias ptr @g_malloc_n(i64 noundef %133, i64 noundef %134) #11
  store ptr %135, ptr %16, align 8
  br label %136

136:                                              ; preds = %132, %127
  br label %137

137:                                              ; preds = %136, %113
  %138 = load ptr, ptr %16, align 8
  store ptr %138, ptr %17, align 8
  call void @llvm.lifetime.end.p0(i64 8, ptr %16) #8
  call void @llvm.lifetime.end.p0(i64 8, ptr %15) #8
  call void @llvm.lifetime.end.p0(i64 8, ptr %14) #8
  %139 = load ptr, ptr %17, align 8
  store ptr %139, ptr %12, align 8
  %140 = load i16, ptr %9, align 2
  %141 = load ptr, ptr %12, align 8
  %142 = getelementptr inbounds nuw %struct.capsa_t, ptr %141, i32 0, i32 0
  store i16 %140, ptr %142, align 8
  %143 = load i32, ptr %11, align 4
  %144 = load ptr, ptr %12, align 8
  %145 = getelementptr inbounds nuw %struct.capsa_t, ptr %144, i32 0, i32 1
  store i32 %143, ptr %145, align 4
  %146 = load ptr, ptr %12, align 8
  %147 = getelementptr inbounds nuw %struct.capsa_t, ptr %146, i32 0, i32 2
  store i32 0, ptr %147, align 8
  %148 = load ptr, ptr %12, align 8
  %149 = load ptr, ptr %5, align 8
  %150 = getelementptr inbounds nuw %struct.wtap, ptr %149, i32 0, i32 13
  store ptr %148, ptr %150, align 8
  %151 = load ptr, ptr %5, align 8
  %152 = getelementptr inbounds nuw %struct.wtap, ptr %151, i32 0, i32 15
  store ptr @capsa_read, ptr %152, align 8
  %153 = load ptr, ptr %5, align 8
  %154 = getelementptr inbounds nuw %struct.wtap, ptr %153, i32 0, i32 16
  store ptr @capsa_seek_read, ptr %154, align 8
  %155 = load ptr, ptr %5, align 8
  %156 = getelementptr inbounds nuw %struct.wtap, ptr %155, i32 0, i32 19
  store i32 1, ptr %156, align 8
  %157 = load ptr, ptr %5, align 8
  %158 = getelementptr inbounds nuw %struct.wtap, ptr %157, i32 0, i32 4
  store i32 0, ptr %158, align 8
  %159 = load ptr, ptr %5, align 8
  %160 = getelementptr inbounds nuw %struct.wtap, ptr %159, i32 0, i32 20
  store i32 6, ptr %160, align 4
  %161 = load ptr, ptr %5, align 8
  call void @wtap_add_generated_idb(ptr noundef %161)
  store i32 1, ptr %4, align 4
  store i32 1, ptr %13, align 4
  br label %162

162:                                              ; preds = %137, %106, %97, %89, %81, %73, %65, %52, %43, %35, %30, %29
  call void @llvm.lifetime.end.p0(i64 8, ptr %12) #8
  call void @llvm.lifetime.end.p0(i64 4, ptr %11) #8
  call void @llvm.lifetime.end.p0(i64 4, ptr %10) #8
  call void @llvm.lifetime.end.p0(i64 2, ptr %9) #8
  call void @llvm.lifetime.end.p0(i64 4, ptr %8) #8
  %163 = load i32, ptr %4, align 4
  ret i32 %163
}