; Function Attrs: null_pointer_is_valid sspstrong uwtable
define hidden range(i32 -1, 2) i32 @capsa_open(ptr noundef %0, ptr noundef %1, ptr noundef %2) local_unnamed_addr #0 {
  %4 = alloca [4 x i8], align 1
  %5 = alloca i16, align 2
  %6 = alloca i32, align 4
  call void @llvm.lifetime.start.p0(i64 4, ptr nonnull %4) #6
  call void @llvm.lifetime.start.p0(i64 2, ptr nonnull %5) #6
  call void @llvm.lifetime.start.p0(i64 4, ptr nonnull %6) #6
  %7 = load ptr, ptr %0, align 8
  %8 = call zeroext i1 @wtap_read_bytes(ptr noundef %7, ptr noundef nonnull %4, i32 noundef 4, ptr noundef %1, ptr noundef %2)
  br i1 %8, label %11, label %9

9:                                                ; preds = %3
  %10 = load i32, ptr %1, align 4
  %.not = icmp ne i32 %10, -12
  %. = sext i1 %.not to i32
  br label %52

11:                                               ; preds = %3
  %bcmp = call i32 @bcmp(ptr noundef nonnull dereferenceable(4) %4, ptr noundef nonnull dereferenceable(4) @capsa_magic, i64 4)
  %.not53 = icmp eq i32 %bcmp, 0
  br i1 %.not53, label %12, label %52

12:                                               ; preds = %11
  %13 = load ptr, ptr %0, align 8
  %14 = call zeroext i1 @wtap_read_bytes(ptr noundef %13, ptr noundef nonnull %5, i32 noundef 2, ptr noundef %1, ptr noundef %2)
  br i1 %14, label %15, label %52

15:                                               ; preds = %12
  %16 = load i16, ptr %5, align 2
  switch i16 %16, label %18 [
    i16 1, label %21
    i16 2, label %17
  ]

17:                                               ; preds = %15
  br label %21

18:                                               ; preds = %15
  store i32 -4, ptr %1, align 4
  %19 = zext i16 %16 to i32
  %20 = call noalias ptr (ptr, ptr, ...) @wmem_strdup_printf(ptr noundef null, ptr noundef nonnull @.str, i32 noundef %19)
  store ptr %20, ptr %2, align 8
  br label %52

21:                                               ; preds = %15, %17
  %.052.in = phi ptr [ @packet_builder_file_type_subtype, %17 ], [ @capsa_file_type_subtype, %15 ]
  %.052 = load i32, ptr %.052.in, align 4
  %22 = load ptr, ptr %0, align 8
  %23 = call zeroext i1 @wtap_read_bytes(ptr noundef %22, ptr noundef null, i32 noundef 2, ptr noundef %1, ptr noundef %2)
  br i1 %23, label %24, label %52

24:                                               ; preds = %21
  %25 = load ptr, ptr %0, align 8
  %26 = call zeroext i1 @wtap_read_bytes(ptr noundef %25, ptr noundef null, i32 noundef 4, ptr noundef %1, ptr noundef %2)
  br i1 %26, label %27, label %52

27:                                               ; preds = %24
  %28 = load ptr, ptr %0, align 8
  %29 = call zeroext i1 @wtap_read_bytes(ptr noundef %28, ptr noundef null, i32 noundef 4, ptr noundef %1, ptr noundef %2)
  br i1 %29, label %30, label %52

30:                                               ; preds = %27
  %31 = load ptr, ptr %0, align 8
  %32 = call zeroext i1 @wtap_read_bytes(ptr noundef %31, ptr noundef null, i32 noundef 4, ptr noundef %1, ptr noundef %2)
  br i1 %32, label %33, label %52

33:                                               ; preds = %30
  %34 = load ptr, ptr %0, align 8
  %35 = call zeroext i1 @wtap_read_bytes(ptr noundef %34, ptr noundef nonnull %6, i32 noundef 4, ptr noundef %1, ptr noundef %2)
  br i1 %35, label %36, label %52

36:                                               ; preds = %33
  %37 = load ptr, ptr %0, align 8
  %38 = call i64 @file_seek(ptr noundef %37, i64 noundef 17647, i32 noundef 0, ptr noundef %1)
  %.not54 = icmp eq i64 %38, 0
  br i1 %.not54, label %52, label %39

39:                                               ; preds = %36
  %40 = getelementptr inbounds nuw i8, ptr %0, i64 20
  store i32 %.052, ptr %40, align 4
  %41 = call noalias dereferenceable_or_null(824) ptr @g_malloc(i64 noundef 824) #7
  %42 = load i16, ptr %5, align 2
  store i16 %42, ptr %41, align 8
  %43 = load i32, ptr %6, align 4
  %44 = getelementptr inbounds nuw i8, ptr %41, i64 4
  store i32 %43, ptr %44, align 4
  %45 = getelementptr inbounds nuw i8, ptr %41, i64 8
  store i32 0, ptr %45, align 8
  %46 = getelementptr inbounds nuw i8, ptr %0, i64 96
  store ptr %41, ptr %46, align 8
  %47 = getelementptr inbounds nuw i8, ptr %0, i64 112
  store ptr @capsa_read, ptr %47, align 8
  %48 = getelementptr inbounds nuw i8, ptr %0, i64 120
  store ptr @capsa_seek_read, ptr %48, align 8
  %49 = getelementptr inbounds nuw i8, ptr %0, i64 144
  store i32 1, ptr %49, align 8
  %50 = getelementptr inbounds nuw i8, ptr %0, i64 24
  store i32 0, ptr %50, align 8
  %51 = getelementptr inbounds nuw i8, ptr %0, i64 148
  store i32 6, ptr %51, align 4
  call void @wtap_add_generated_idb(ptr noundef %0)
  br label %52

52:                                               ; preds = %36, %33, %30, %27, %24, %21, %12, %11, %9, %39, %18
  %.0 = phi i32 [ -1, %18 ], [ 1, %39 ], [ %., %9 ], [ 0, %11 ], [ -1, %12 ], [ -1, %21 ], [ -1, %24 ], [ -1, %27 ], [ -1, %30 ], [ -1, %33 ], [ -1, %36 ]
  call void @llvm.lifetime.end.p0(i64 4, ptr nonnull %6) #6
  call void @llvm.lifetime.end.p0(i64 2, ptr nonnull %5) #6
  call void @llvm.lifetime.end.p0(i64 4, ptr nonnull %4) #6
  ret i32 %.0
}